; Function Attrs: mustprogress nofree norecurse nosync nounwind willreturn memory(write, argmem: readwrite, inaccessiblemem: none) uwtable
define noundef zeroext i1 @_ZN3net14QuicDataWriter10WriteUInt8Eh(ptr noundef nonnull align 8 captures(none) dereferenceable(24) %0, i8 noundef zeroext %1) local_unnamed_addr #3 align 2 personality ptr @__gxx_personality_v0 {
  %3 = getelementptr inbounds nuw i8, ptr %0, i64 16
  %4 = load i64, ptr %3, align 8, !tbaa !11
  %5 = getelementptr inbounds nuw i8, ptr %0, i64 8
  %6 = load i64, ptr %5, align 8, !tbaa !10
  %or.cond.i.i.not = icmp ugt i64 %6, %4
  %7 = load ptr, ptr %0, align 8
  %8 = getelementptr inbounds nuw i8, ptr %7, i64 %4
  %.0.i.i = select i1 %or.cond.i.i.not, ptr %8, ptr null
  %.not.i = icmp ne ptr %.0.i.i, null
  br i1 %.not.i, label %9, label %_ZN3net14QuicDataWriter10WriteBytesEPKvm.exit

9:                                                ; preds = %2
  store i8 %1, ptr %.0.i.i, align 1
  %10 = load i64, ptr %3, align 8, !tbaa !11
  %11 = add i64 %10, 1
  store i64 %11, ptr %3, align 8, !tbaa !11
  br label %_ZN3net14QuicDataWriter10WriteBytesEPKvm.exit

_ZN3net14QuicDataWriter10WriteBytesEPKvm.exit:    ; preds = %2, %9
  ret i1 %.not.i
}